; Function Attrs: nounwind uwtable
define internal noundef i32 @H5O__dtype_reset(ptr noundef %0) #0 {
  %.not = icmp eq ptr %0, null
  br i1 %.not, label %4, label %2

2:                                                ; preds = %1
  %3 = tail call i32 @H5T__free(ptr noundef nonnull %0) #15
  br label %4

4:                                                ; preds = %2, %1
  ret i32 0
}